; Function Attrs: mustprogress uwtable
define internal void @_ZL10opRollbackR7GlobalsNSt7__cxx114listINS1_12basic_stringIcSt11char_traitsIcESaIcEEESaIS7_EEES9_(ptr noundef nonnull align 8 dereferenceable(185) %0, ptr nocapture noundef readonly %1, ptr nocapture noundef readonly %2) #5 personality ptr @__gxx_personality_v0 {
  %4 = alloca %"class.std::__cxx11::basic_string", align 8
  %5 = alloca %"class.std::allocator", align 1
  %6 = alloca %"class.std::__cxx11::basic_string", align 8
  %7 = alloca %"class.std::allocator", align 1
  %8 = getelementptr inbounds i8, ptr %1, i64 16
  %9 = load i64, ptr %8, align 8
  %.not = icmp eq i64 %9, 0
  br i1 %.not, label %19, label %10

10:                                               ; preds = %3
  %11 = tail call ptr @__cxa_allocate_exception(i64 376) #29
  call void @_ZNSaIcEC1Ev(ptr noundef nonnull align 1 dereferenceable(1) %5) #29
  invoke void @_ZNSt7__cxx1112basic_stringIcSt11char_traitsIcESaIcEEC2IS3_EEPKcRKS3_(ptr noundef nonnull align 8 dereferenceable(32) %4, ptr noundef nonnull @.str.66, ptr noundef nonnull align 1 dereferenceable(1) %5)
          to label %12 unwind label %.thread

12:                                               ; preds = %10
  %13 = load ptr, ptr %1, align 8
  %14 = getelementptr inbounds i8, ptr %13, i64 16
  invoke void @_ZN3nix10UsageErrorCI2NS_9BaseErrorEIJNSt7__cxx1112basic_stringIcSt11char_traitsIcESaIcEEEEEERKS6_DpRKT_(ptr noundef nonnull align 8 dereferenceable(376) %11, ptr noundef nonnull align 8 dereferenceable(32) %4, ptr noundef nonnull align 8 dereferenceable(32) %14)
          to label %15 unwind label %17

15:                                               ; preds = %12
  invoke void @__cxa_throw(ptr nonnull %11, ptr nonnull @_ZTIN3nix10UsageErrorE, ptr nonnull @_ZN3nix10UsageErrorD2Ev) #30
          to label %36 unwind label %17

.thread:                                          ; preds = %10
  %16 = landingpad { ptr, i32 }
          cleanup
  br label %.sink.split.sink.split

17:                                               ; preds = %12, %15
  %.05 = phi i1 [ false, %15 ], [ true, %12 ]
  %18 = landingpad { ptr, i32 }
          cleanup
  call void @_ZNSt7__cxx1112basic_stringIcSt11char_traitsIcESaIcEED2Ev(ptr noundef nonnull align 8 dereferenceable(32) %4) #29
  call void @_ZNSaIcED1Ev(ptr noundef nonnull align 1 dereferenceable(1) %5) #29
  br i1 %.05, label %.sink.split, label %35

19:                                               ; preds = %3
  %20 = getelementptr inbounds i8, ptr %2, i64 16
  %21 = load i64, ptr %20, align 8
  %.not12 = icmp eq i64 %21, 0
  br i1 %.not12, label %29, label %22

22:                                               ; preds = %19
  %23 = tail call ptr @__cxa_allocate_exception(i64 376) #29
  call void @_ZNSaIcEC1Ev(ptr noundef nonnull align 1 dereferenceable(1) %7) #29
  invoke void @_ZNSt7__cxx1112basic_stringIcSt11char_traitsIcESaIcEEC2IS3_EEPKcRKS3_(ptr noundef nonnull align 8 dereferenceable(32) %6, ptr noundef nonnull @.str.231, ptr noundef nonnull align 1 dereferenceable(1) %7)
          to label %24 unwind label %.thread20

24:                                               ; preds = %22
  invoke void @_ZN3nix10UsageErrorCI2NS_9BaseErrorEIJEEERKNSt7__cxx1112basic_stringIcSt11char_traitsIcESaIcEEEDpRKT_(ptr noundef nonnull align 8 dereferenceable(376) %23, ptr noundef nonnull align 8 dereferenceable(32) %6)
          to label %25 unwind label %27

25:                                               ; preds = %24
  invoke void @__cxa_throw(ptr nonnull %23, ptr nonnull @_ZTIN3nix10UsageErrorE, ptr nonnull @_ZN3nix10UsageErrorD2Ev) #30
          to label %36 unwind label %27

.thread20:                                        ; preds = %22
  %26 = landingpad { ptr, i32 }
          cleanup
  br label %.sink.split.sink.split

27:                                               ; preds = %24, %25
  %.0 = phi i1 [ false, %25 ], [ true, %24 ]
  %28 = landingpad { ptr, i32 }
          cleanup
  call void @_ZNSt7__cxx1112basic_stringIcSt11char_traitsIcESaIcEED2Ev(ptr noundef nonnull align 8 dereferenceable(32) %6) #29
  call void @_ZNSaIcED1Ev(ptr noundef nonnull align 1 dereferenceable(1) %7) #29
  br i1 %.0, label %.sink.split, label %35

29:                                               ; preds = %19
  %30 = getelementptr inbounds i8, ptr %0, i64 96
  %31 = getelementptr inbounds i8, ptr %0, i64 144
  %32 = load i8, ptr %31, align 8
  %33 = and i8 %32, 1
  %34 = icmp ne i8 %33, 0
  tail call void @_ZN3nix16switchGenerationERKNSt7__cxx1112basic_stringIcSt11char_traitsIcESaIcEEESt8optionalImEb(ptr noundef nonnull align 8 dereferenceable(32) %30, i64 undef, i8 0, i1 noundef zeroext %34)
  ret void

.sink.split.sink.split:                           ; preds = %.thread, %.thread20
  %.sink24 = phi ptr [ %7, %.thread20 ], [ %5, %.thread ]
  %.sink.ph = phi ptr [ %23, %.thread20 ], [ %11, %.thread ]
  %.pn14.pn.ph.ph = phi { ptr, i32 } [ %26, %.thread20 ], [ %16, %.thread ]
  call void @_ZNSaIcED1Ev(ptr noundef nonnull align 1 dereferenceable(1) %.sink24) #29
  br label %.sink.split

.sink.split:                                      ; preds = %.sink.split.sink.split, %27, %17
  %.sink = phi ptr [ %11, %17 ], [ %23, %27 ], [ %.sink.ph, %.sink.split.sink.split ]
  %.pn14.pn.ph = phi { ptr, i32 } [ %18, %17 ], [ %28, %27 ], [ %.pn14.pn.ph.ph, %.sink.split.sink.split ]
  call void @__cxa_free_exception(ptr %.sink) #29
  br label %35

35:                                               ; preds = %.sink.split, %27, %17
  %.pn14.pn = phi { ptr, i32 } [ %18, %17 ], [ %28, %27 ], [ %.pn14.pn.ph, %.sink.split ]
  resume { ptr, i32 } %.pn14.pn

36:                                               ; preds = %25, %15
  unreachable
}